; Function Attrs: mustprogress nofree norecurse nosync nounwind willreturn memory(argmem: readwrite) uwtable
define hidden i64 @_ZN6google8protobuf2io16CodedInputStream35IncrementRecursionDepthAndPushLimitEi(ptr noundef nonnull align 8 captures(none) dereferenceable(80) %0, i32 noundef %1) local_unnamed_addr #8 align 2 {
  %3 = getelementptr inbounds nuw i8, ptr %0, i64 24
  %4 = load i32, ptr %3, align 8, !tbaa !20
  %5 = getelementptr inbounds nuw i8, ptr %0, i64 8
  %6 = load ptr, ptr %5, align 8, !tbaa !14
  %7 = load ptr, ptr %0, align 8, !tbaa !15
  %8 = ptrtoint ptr %6 to i64
  %9 = ptrtoint ptr %7 to i64
  %.neg3.i.i = sub i64 %9, %8
  %.neg4.i.i = trunc i64 %.neg3.i.i to i32
  %10 = getelementptr inbounds nuw i8, ptr %0, i64 44
  %11 = load i32, ptr %10, align 4, !tbaa !16
  %.neg2.i.i = sub i32 %4, %11
  %12 = add i32 %.neg2.i.i, %.neg4.i.i
  %13 = getelementptr inbounds nuw i8, ptr %0, i64 40
  %14 = load i32, ptr %13, align 8, !tbaa !21
  %15 = icmp sgt i32 %1, -1
  %16 = sub nsw i32 2147483647, %12
  %.not.i = icmp samesign ule i32 %1, %16
  %or.cond.not11.i = select i1 %15, i1 %.not.i, i1 false
  %17 = sub nsw i32 %14, %12
  %18 = icmp slt i32 %1, %17
  %or.cond9.i = select i1 %or.cond.not11.i, i1 %18, i1 false
  br i1 %or.cond9.i, label %19, label %_ZN6google8protobuf2io16CodedInputStream9PushLimitEi.exit, !prof !22

19:                                               ; preds = %2
  %20 = add nsw i32 %12, %1
  store i32 %20, ptr %13, align 8, !tbaa !21
  %21 = sext i32 %11 to i64
  %22 = getelementptr inbounds i8, ptr %6, i64 %21
  store ptr %22, ptr %5, align 8, !tbaa !14
  %23 = getelementptr inbounds nuw i8, ptr %0, i64 48
  %24 = load i32, ptr %23, align 8, !tbaa !23
  %25 = tail call i32 @llvm.smin.i32(i32 %24, i32 %20)
  %26 = icmp slt i32 %25, %4
  br i1 %26, label %27, label %_ZN6google8protobuf2io16CodedInputStream21RecomputeBufferLimitsEv.exit.i

27:                                               ; preds = %19
  %28 = sub nsw i32 %4, %25
  %29 = sext i32 %28 to i64
  %30 = sub nsw i64 0, %29
  %31 = getelementptr inbounds i8, ptr %22, i64 %30
  store ptr %31, ptr %5, align 8, !tbaa !14
  br label %_ZN6google8protobuf2io16CodedInputStream21RecomputeBufferLimitsEv.exit.i

_ZN6google8protobuf2io16CodedInputStream21RecomputeBufferLimitsEv.exit.i: ; preds = %27, %19
  %.sink.i.i = phi i32 [ %28, %27 ], [ 0, %19 ]
  store i32 %.sink.i.i, ptr %10, align 4, !tbaa !16
  br label %_ZN6google8protobuf2io16CodedInputStream9PushLimitEi.exit

_ZN6google8protobuf2io16CodedInputStream9PushLimitEi.exit: ; preds = %2, %_ZN6google8protobuf2io16CodedInputStream21RecomputeBufferLimitsEv.exit.i
  %32 = getelementptr inbounds nuw i8, ptr %0, i64 52
  %33 = load i32, ptr %32, align 4, !tbaa !25
  %34 = add nsw i32 %33, -1
  store i32 %34, ptr %32, align 4, !tbaa !25
  %.sroa.2.0.insert.ext.i = zext i32 %34 to i64
  %.sroa.2.0.insert.shift.i = shl nuw i64 %.sroa.2.0.insert.ext.i, 32
  %.sroa.0.0.insert.ext.i = zext i32 %14 to i64
  %.sroa.0.0.insert.insert.i = or disjoint i64 %.sroa.2.0.insert.shift.i, %.sroa.0.0.insert.ext.i
  ret i64 %.sroa.0.0.insert.insert.i
}